target datalayout = "e-m:e-p270:32:32-p271:32:32-p272:64:64-i64:64-i128:128-f80:128-n8:16:32:64-S128"
target triple = "x86_64-pc-linux-gnu"

%struct.anon.3 = type { i32, i32, i32 }
%struct.MultiXactMember = type { i32, i32 }

@tupleLockExtraInfo = internal constant [4 x %struct.anon.3] [%struct.anon.3 { i32 1, i32 0, i32 -1 }, %struct.anon.3 { i32 2, i32 1, i32 -1 }, %struct.anon.3 { i32 7, i32 2, i32 4 }, %struct.anon.3 { i32 8, i32 3, i32 5 }], align 16
@MultiXactStatusLock = internal constant [6 x i32] [i32 0, i32 1, i32 2, i32 3, i32 2, i32 3], align 16

; Function Attrs: inlinehint nounwind uwtable
define internal zeroext i1 @HEAP_XMAX_IS_LOCKED_ONLY(i16 noundef zeroext %0) #3 {
  %2 = alloca i16, align 2
  store i16 %0, ptr %2, align 2
  %3 = load i16, ptr %2, align 2
  %4 = zext i16 %3 to i32
  %5 = and i32 %4, 128
  %6 = icmp ne i32 %5, 0
  br i1 %6, label %12, label %7

7:                                                ; preds = %1
  %8 = load i16, ptr %2, align 2
  %9 = zext i16 %8 to i32
  %10 = and i32 %9, 4176
  %11 = icmp eq i32 %10, 64
  br label %12

12:                                               ; preds = %7, %1
  %13 = phi i1 [ true, %1 ], [ %11, %7 ]
  ret i1 %13
}

; Function Attrs: inlinehint nounwind uwtable
define internal zeroext i1 @HEAP_LOCKED_UPGRADED(i16 noundef zeroext %0) #3 {
  %2 = alloca i16, align 2
  store i16 %0, ptr %2, align 2
  %3 = load i16, ptr %2, align 2
  %4 = zext i16 %3 to i32
  %5 = and i32 %4, 4096
  %6 = icmp ne i32 %5, 0
  br i1 %6, label %7, label %17

7:                                                ; preds = %1
  %8 = load i16, ptr %2, align 2
  %9 = zext i16 %8 to i32
  %10 = and i32 %9, 128
  %11 = icmp ne i32 %10, 0
  br i1 %11, label %12, label %17

12:                                               ; preds = %7
  %13 = load i16, ptr %2, align 2
  %14 = zext i16 %13 to i32
  %15 = and i32 %14, 80
  %16 = icmp eq i32 %15, 0
  br label %17

17:                                               ; preds = %12, %7, %1
  %18 = phi i1 [ false, %7 ], [ false, %1 ], [ %16, %12 ]
  ret i1 %18
}

; Function Attrs: nounwind uwtable
define internal zeroext i1 @DoesMultiXactIdConflict(i32 noundef %0, i16 noundef zeroext %1, i32 noundef %2, ptr noundef %3) #0 {
  %5 = alloca i1, align 1
  %6 = alloca i32, align 4
  %7 = alloca i16, align 2
  %8 = alloca i32, align 4
  %9 = alloca ptr, align 8
  %10 = alloca i32, align 4
  %11 = alloca ptr, align 8
  %12 = alloca i8, align 1
  %13 = alloca i32, align 4
  %14 = alloca i32, align 4
  %15 = alloca i32, align 4
  %16 = alloca i32, align 4
  %17 = alloca i32, align 4
  store i32 %0, ptr %6, align 4
  store i16 %1, ptr %7, align 2
  store i32 %2, ptr %8, align 4
  store ptr %3, ptr %9, align 8
  call void @llvm.lifetime.start.p0(i64 4, ptr %10) #10
  call void @llvm.lifetime.start.p0(i64 8, ptr %11) #10
  call void @llvm.lifetime.start.p0(i64 1, ptr %12) #10
  store i8 0, ptr %12, align 1
  call void @llvm.lifetime.start.p0(i64 4, ptr %13) #10
  %18 = load i32, ptr %8, align 4
  %19 = zext i32 %18 to i64
  %20 = getelementptr inbounds nuw [4 x %struct.anon.3], ptr @tupleLockExtraInfo, i64 0, i64 %19
  %21 = getelementptr inbounds nuw %struct.anon.3, ptr %20, i32 0, i32 0
  %22 = load i32, ptr %21, align 4
  store i32 %22, ptr %13, align 4
  %23 = load i16, ptr %7, align 2
  %24 = call zeroext i1 @HEAP_LOCKED_UPGRADED(i16 noundef zeroext %23)
  br i1 %24, label %25, label %26

25:                                               ; preds = %4
  store i1 false, ptr %5, align 1
  store i32 1, ptr %14, align 4
  br label %117

26:                                               ; preds = %4
  %27 = load i32, ptr %6, align 4
  %28 = load i16, ptr %7, align 2
  %29 = call zeroext i1 @HEAP_XMAX_IS_LOCKED_ONLY(i16 noundef zeroext %28)
  %30 = call i32 @GetMultiXactIdMembers(i32 noundef %27, ptr noundef %11, i1 noundef zeroext false, i1 noundef zeroext %29)
  store i32 %30, ptr %10, align 4
  %31 = load i32, ptr %10, align 4
  %32 = icmp sge i32 %31, 0
  br i1 %32, label %33, label %114

33:                                               ; preds = %26
  call void @llvm.lifetime.start.p0(i64 4, ptr %15) #10
  store i32 0, ptr %15, align 4
  br label %34

34:                                               ; preds = %109, %33
  %35 = load i32, ptr %15, align 4
  %36 = load i32, ptr %10, align 4
  %37 = icmp slt i32 %35, %36
  br i1 %37, label %38, label %112

38:                                               ; preds = %34
  call void @llvm.lifetime.start.p0(i64 4, ptr %16) #10
  call void @llvm.lifetime.start.p0(i64 4, ptr %17) #10
  %39 = load i8, ptr %12, align 1, !range !4, !noundef !5
  %40 = trunc i8 %39 to i1
  br i1 %40, label %41, label %49

41:                                               ; preds = %38
  %42 = load ptr, ptr %9, align 8
  %43 = icmp eq ptr %42, null
  br i1 %43, label %48, label %44

44:                                               ; preds = %41
  %45 = load ptr, ptr %9, align 8
  %46 = load i8, ptr %45, align 1, !range !4, !noundef !5
  %47 = trunc i8 %46 to i1
  br i1 %47, label %48, label %49

48:                                               ; preds = %44, %41
  store i32 2, ptr %14, align 4
  br label %106

49:                                               ; preds = %44, %38
  %50 = load ptr, ptr %11, align 8
  %51 = load i32, ptr %15, align 4
  %52 = sext i32 %51 to i64
  %53 = getelementptr inbounds %struct.MultiXactMember, ptr %50, i64 %52
  %54 = getelementptr inbounds nuw %struct.MultiXactMember, ptr %53, i32 0, i32 1
  %55 = load i32, ptr %54, align 4
  %56 = zext i32 %55 to i64
  %57 = getelementptr inbounds nuw [6 x i32], ptr @MultiXactStatusLock, i64 0, i64 %56
  %58 = load i32, ptr %57, align 4
  %59 = sext i32 %58 to i64
  %60 = getelementptr inbounds [4 x %struct.anon.3], ptr @tupleLockExtraInfo, i64 0, i64 %59
  %61 = getelementptr inbounds nuw %struct.anon.3, ptr %60, i32 0, i32 0
  %62 = load i32, ptr %61, align 4
  store i32 %62, ptr %17, align 4
  %63 = load ptr, ptr %11, align 8
  %64 = load i32, ptr %15, align 4
  %65 = sext i32 %64 to i64
  %66 = getelementptr inbounds %struct.MultiXactMember, ptr %63, i64 %65
  %67 = getelementptr inbounds nuw %struct.MultiXactMember, ptr %66, i32 0, i32 0
  %68 = load i32, ptr %67, align 4
  store i32 %68, ptr %16, align 4
  %69 = load i32, ptr %16, align 4
  %70 = call zeroext i1 @TransactionIdIsCurrentTransactionId(i32 noundef %69)
  br i1 %70, label %71, label %77

71:                                               ; preds = %49
  %72 = load ptr, ptr %9, align 8
  %73 = icmp ne ptr %72, null
  br i1 %73, label %74, label %76

74:                                               ; preds = %71
  %75 = load ptr, ptr %9, align 8
  store i8 1, ptr %75, align 1
  br label %76

76:                                               ; preds = %74, %71
  store i32 4, ptr %14, align 4
  br label %106

77:                                               ; preds = %49
  %78 = load i8, ptr %12, align 1, !range !4, !noundef !5
  %79 = trunc i8 %78 to i1
  br i1 %79, label %80, label %81

80:                                               ; preds = %77
  store i32 4, ptr %14, align 4
  br label %106

81:                                               ; preds = %77
  br label %82

82:                                               ; preds = %81
  %83 = load i32, ptr %17, align 4
  %84 = load i32, ptr %13, align 4
  %85 = call zeroext i1 @DoLockModesConflict(i32 noundef %83, i32 noundef %84)
  br i1 %85, label %87, label %86

86:                                               ; preds = %82
  store i32 4, ptr %14, align 4
  br label %106

87:                                               ; preds = %82
  %88 = load ptr, ptr %11, align 8
  %89 = load i32, ptr %15, align 4
  %90 = sext i32 %89 to i64
  %91 = getelementptr inbounds %struct.MultiXactMember, ptr %88, i64 %90
  %92 = getelementptr inbounds nuw %struct.MultiXactMember, ptr %91, i32 0, i32 1
  %93 = load i32, ptr %92, align 4
  %94 = icmp ugt i32 %93, 3
  br i1 %94, label %95, label %100

95:                                               ; preds = %87
  %96 = load i32, ptr %16, align 4
  %97 = call zeroext i1 @TransactionIdDidAbort(i32 noundef %96)
  br i1 %97, label %98, label %99

98:                                               ; preds = %95
  store i32 4, ptr %14, align 4
  br label %106

99:                                               ; preds = %95
  br label %105

100:                                              ; preds = %87
  %101 = load i32, ptr %16, align 4
  %102 = call zeroext i1 @TransactionIdIsInProgress(i32 noundef %101)
  br i1 %102, label %104, label %103

103:                                              ; preds = %100
  store i32 4, ptr %14, align 4
  br label %106

104:                                              ; preds = %100
  br label %105

105:                                              ; preds = %104, %99
  store i8 1, ptr %12, align 1
  store i32 0, ptr %14, align 4
  br label %106

106:                                              ; preds = %105, %103, %98, %86, %80, %76, %48
  call void @llvm.lifetime.end.p0(i64 4, ptr %17) #10
  call void @llvm.lifetime.end.p0(i64 4, ptr %16) #10
  %107 = load i32, ptr %14, align 4
  switch i32 %107, label %119 [
    i32 0, label %108
    i32 2, label %112
    i32 4, label %109
  ]

108:                                              ; preds = %106
  br label %109

109:                                              ; preds = %108, %106
  %110 = load i32, ptr %15, align 4
  %111 = add i32 %110, 1
  store i32 %111, ptr %15, align 4
  br label %34, !llvm.loop !17

112:                                              ; preds = %106, %34
  %113 = load ptr, ptr %11, align 8
  call void @pfree(ptr noundef %113)
  call void @llvm.lifetime.end.p0(i64 4, ptr %15) #10
  br label %114

114:                                              ; preds = %112, %26
  %115 = load i8, ptr %12, align 1, !range !4, !noundef !5
  %116 = trunc i8 %115 to i1
  store i1 %116, ptr %5, align 1
  store i32 1, ptr %14, align 4
  br label %117

117:                                              ; preds = %114, %25
  call void @llvm.lifetime.end.p0(i64 4, ptr %13) #10
  call void @llvm.lifetime.end.p0(i64 1, ptr %12) #10
  call void @llvm.lifetime.end.p0(i64 8, ptr %11) #10
  call void @llvm.lifetime.end.p0(i64 4, ptr %10) #10
  %118 = load i1, ptr %5, align 1
  ret i1 %118

119:                                              ; preds = %106
  unreachable
}