; Function Attrs: nounwind uwtable
define internal fastcc zeroext i1 @DoesMultiXactIdConflict(i32 noundef %0, i16 noundef zeroext %1, i32 noundef %2, ptr noundef captures(address_is_null) %3) unnamed_addr #2 {
  %5 = alloca ptr, align 8
  call void @llvm.lifetime.start.p0(i64 8, ptr nonnull %5) #13
  %6 = zext i32 %2 to i64
  %7 = getelementptr inbounds nuw [4 x %struct.anon.3], ptr @tupleLockExtraInfo, i64 0, i64 %6
  %8 = load i32, ptr %7, align 4
  %9 = and i16 %1, 4304
  %10 = icmp eq i16 %9, 4224
  br i1 %10, label %82, label %11

11:                                               ; preds = %4
  %12 = zext i16 %1 to i32
  %13 = and i32 %12, 128
  %14 = icmp ne i32 %13, 0
  %15 = and i32 %12, 4176
  %16 = icmp eq i32 %15, 64
  %17 = or i1 %14, %16
  %18 = call i32 @GetMultiXactIdMembers(i32 noundef %0, ptr noundef nonnull %5, i1 noundef zeroext false, i1 noundef zeroext %17) #13
  %19 = icmp sgt i32 %18, -1
  br i1 %19, label %.preheader, label %82

.preheader:                                       ; preds = %11
  %.not = icmp eq i32 %18, 0
  br i1 %.not, label %._crit_edge, label %.lr.ph

.lr.ph:                                           ; preds = %.preheader
  %20 = icmp eq ptr %3, null
  %wide.trip.count55 = zext nneg i32 %18 to i64
  br i1 %20, label %.lr.ph.split.us.split.us, label %.lr.ph.split.split

.lr.ph.split.us.split.us:                         ; preds = %.lr.ph, %47
  %indvars.iv53 = phi i64 [ %indvars.iv.next54, %47 ], [ 0, %.lr.ph ]
  %.136.us.us = phi i8 [ %.3.ph.us.us, %47 ], [ 0, %.lr.ph ]
  %21 = trunc nuw i8 %.136.us.us to i1
  br i1 %21, label %._crit_edge, label %22

22:                                               ; preds = %.lr.ph.split.us.split.us
  %23 = load ptr, ptr %5, align 8
  %24 = getelementptr inbounds nuw %struct.MultiXactMember, ptr %23, i64 %indvars.iv53
  %25 = getelementptr inbounds nuw i8, ptr %24, i64 4
  %26 = load i32, ptr %25, align 4
  %27 = zext i32 %26 to i64
  %28 = getelementptr inbounds nuw [6 x i32], ptr @MultiXactStatusLock, i64 0, i64 %27
  %29 = load i32, ptr %28, align 4
  %30 = sext i32 %29 to i64
  %31 = getelementptr inbounds [4 x %struct.anon.3], ptr @tupleLockExtraInfo, i64 0, i64 %30
  %32 = load i32, ptr %31, align 4
  %33 = load i32, ptr %24, align 4
  %34 = call zeroext i1 @TransactionIdIsCurrentTransactionId(i32 noundef %33) #13
  br i1 %34, label %47, label %35

35:                                               ; preds = %22
  %36 = call zeroext i1 @DoLockModesConflict(i32 noundef %32, i32 noundef %8) #13
  br i1 %36, label %37, label %47

37:                                               ; preds = %35
  %38 = load ptr, ptr %5, align 8
  %39 = getelementptr inbounds nuw %struct.MultiXactMember, ptr %38, i64 %indvars.iv53, i32 1
  %40 = load i32, ptr %39, align 4
  %41 = icmp ugt i32 %40, 3
  br i1 %41, label %44, label %42

42:                                               ; preds = %37
  %43 = call zeroext i1 @TransactionIdIsInProgress(i32 noundef %33) #13
  br i1 %43, label %46, label %47

44:                                               ; preds = %37
  %45 = call zeroext i1 @TransactionIdDidAbort(i32 noundef %33) #13
  br i1 %45, label %47, label %46

46:                                               ; preds = %44, %42
  br label %47

47:                                               ; preds = %22, %46, %44, %42, %35
  %.3.ph.us.us = phi i8 [ 0, %42 ], [ 0, %44 ], [ 0, %35 ], [ 1, %46 ], [ 0, %22 ]
  %indvars.iv.next54 = add nuw nsw i64 %indvars.iv53, 1
  %exitcond56.not = icmp eq i64 %indvars.iv.next54, %wide.trip.count55
  br i1 %exitcond56.not, label %._crit_edge, label %.lr.ph.split.us.split.us, !llvm.loop !23

.lr.ph.split.split:                               ; preds = %.lr.ph, %79
  %indvars.iv = phi i64 [ %indvars.iv.next, %79 ], [ 0, %.lr.ph ]
  %.136 = phi i8 [ %.3.ph, %79 ], [ 0, %.lr.ph ]
  %48 = trunc nuw i8 %.136 to i1
  br i1 %48, label %49, label %52

49:                                               ; preds = %.lr.ph.split.split
  %50 = load i8, ptr %3, align 1, !range !6, !noundef !7
  %51 = trunc nuw i8 %50 to i1
  br i1 %51, label %._crit_edge, label %52

52:                                               ; preds = %49, %.lr.ph.split.split
  %53 = load ptr, ptr %5, align 8
  %54 = getelementptr inbounds nuw %struct.MultiXactMember, ptr %53, i64 %indvars.iv
  %55 = getelementptr inbounds nuw i8, ptr %54, i64 4
  %56 = load i32, ptr %55, align 4
  %57 = zext i32 %56 to i64
  %58 = getelementptr inbounds nuw [6 x i32], ptr @MultiXactStatusLock, i64 0, i64 %57
  %59 = load i32, ptr %58, align 4
  %60 = sext i32 %59 to i64
  %61 = getelementptr inbounds [4 x %struct.anon.3], ptr @tupleLockExtraInfo, i64 0, i64 %60
  %62 = load i32, ptr %61, align 4
  %63 = load i32, ptr %54, align 4
  %64 = call zeroext i1 @TransactionIdIsCurrentTransactionId(i32 noundef %63) #13
  br i1 %64, label %65, label %66

65:                                               ; preds = %52
  store i8 1, ptr %3, align 1
  br label %79

66:                                               ; preds = %52
  br i1 %48, label %79, label %67

67:                                               ; preds = %66
  %68 = call zeroext i1 @DoLockModesConflict(i32 noundef %62, i32 noundef %8) #13
  br i1 %68, label %69, label %79

69:                                               ; preds = %67
  %70 = load ptr, ptr %5, align 8
  %71 = getelementptr inbounds nuw %struct.MultiXactMember, ptr %70, i64 %indvars.iv, i32 1
  %72 = load i32, ptr %71, align 4
  %73 = icmp ugt i32 %72, 3
  br i1 %73, label %74, label %76

74:                                               ; preds = %69
  %75 = call zeroext i1 @TransactionIdDidAbort(i32 noundef %63) #13
  br i1 %75, label %79, label %78

76:                                               ; preds = %69
  %77 = call zeroext i1 @TransactionIdIsInProgress(i32 noundef %63) #13
  br i1 %77, label %78, label %79

78:                                               ; preds = %76, %74
  br label %79

79:                                               ; preds = %78, %65, %66, %67, %74, %76
  %.3.ph = phi i8 [ 0, %76 ], [ 0, %74 ], [ 0, %67 ], [ 1, %66 ], [ %.136, %65 ], [ 1, %78 ]
  %indvars.iv.next = add nuw nsw i64 %indvars.iv, 1
  %exitcond.not = icmp eq i64 %indvars.iv.next, %wide.trip.count55
  br i1 %exitcond.not, label %._crit_edge, label %.lr.ph.split.split, !llvm.loop !23

._crit_edge:                                      ; preds = %79, %49, %47, %.lr.ph.split.us.split.us, %.preheader
  %.1.lcssa = phi i8 [ 0, %.preheader ], [ 1, %.lr.ph.split.us.split.us ], [ %.3.ph.us.us, %47 ], [ 1, %49 ], [ %.3.ph, %79 ]
  %80 = load ptr, ptr %5, align 8
  call void @pfree(ptr noundef %80) #13
  %81 = trunc nuw i8 %.1.lcssa to i1
  br label %82

82:                                               ; preds = %11, %._crit_edge, %4
  %.0 = phi i1 [ false, %4 ], [ %81, %._crit_edge ], [ false, %11 ]
  call void @llvm.lifetime.end.p0(i64 8, ptr nonnull %5) #13
  ret i1 %.0
}